
AT45DBXXX_LCD12864.elf:     file format elf32-avr

Sections:
Idx Name          Size      VMA       LMA       File off  Algn
  0 .data         0000001c  00800100  00000678  0000070c  2**0
                  CONTENTS, ALLOC, LOAD, DATA
  1 .text         00000678  00000000  00000000  00000094  2**1
                  CONTENTS, ALLOC, LOAD, READONLY, CODE
  2 .bss          00000040  0080011c  0080011c  00000728  2**0
                  ALLOC
  3 .debug_aranges 00000020  00000000  00000000  00000728  2**0
                  CONTENTS, READONLY, DEBUGGING
  4 .debug_pubnames 000000f5  00000000  00000000  00000748  2**0
                  CONTENTS, READONLY, DEBUGGING
  5 .debug_info   00000729  00000000  00000000  0000083d  2**0
                  CONTENTS, READONLY, DEBUGGING
  6 .debug_abbrev 00000200  00000000  00000000  00000f66  2**0
                  CONTENTS, READONLY, DEBUGGING
  7 .debug_line   00000813  00000000  00000000  00001166  2**0
                  CONTENTS, READONLY, DEBUGGING
  8 .debug_frame  000000e0  00000000  00000000  0000197c  2**2
                  CONTENTS, READONLY, DEBUGGING
  9 .debug_str    00000249  00000000  00000000  00001a5c  2**0
                  CONTENTS, READONLY, DEBUGGING
 10 .debug_loc    000003cb  00000000  00000000  00001ca5  2**0
                  CONTENTS, READONLY, DEBUGGING
 11 .debug_ranges 000000d8  00000000  00000000  00002070  2**0
                  CONTENTS, READONLY, DEBUGGING

Disassembly of section .text:

00000000 <__vectors>:
   0:	0c 94 46 00 	jmp	0x8c	; 0x8c <__ctors_end>
   4:	0c 94 63 00 	jmp	0xc6	; 0xc6 <__bad_interrupt>
   8:	0c 94 63 00 	jmp	0xc6	; 0xc6 <__bad_interrupt>
   c:	0c 94 63 00 	jmp	0xc6	; 0xc6 <__bad_interrupt>
  10:	0c 94 63 00 	jmp	0xc6	; 0xc6 <__bad_interrupt>
  14:	0c 94 63 00 	jmp	0xc6	; 0xc6 <__bad_interrupt>
  18:	0c 94 63 00 	jmp	0xc6	; 0xc6 <__bad_interrupt>
  1c:	0c 94 63 00 	jmp	0xc6	; 0xc6 <__bad_interrupt>
  20:	0c 94 63 00 	jmp	0xc6	; 0xc6 <__bad_interrupt>
  24:	0c 94 63 00 	jmp	0xc6	; 0xc6 <__bad_interrupt>
  28:	0c 94 63 00 	jmp	0xc6	; 0xc6 <__bad_interrupt>
  2c:	0c 94 63 00 	jmp	0xc6	; 0xc6 <__bad_interrupt>
  30:	0c 94 63 00 	jmp	0xc6	; 0xc6 <__bad_interrupt>
  34:	0c 94 63 00 	jmp	0xc6	; 0xc6 <__bad_interrupt>
  38:	0c 94 63 00 	jmp	0xc6	; 0xc6 <__bad_interrupt>
  3c:	0c 94 63 00 	jmp	0xc6	; 0xc6 <__bad_interrupt>
  40:	0c 94 63 00 	jmp	0xc6	; 0xc6 <__bad_interrupt>
  44:	0c 94 63 00 	jmp	0xc6	; 0xc6 <__bad_interrupt>
  48:	0c 94 63 00 	jmp	0xc6	; 0xc6 <__bad_interrupt>
  4c:	0c 94 63 00 	jmp	0xc6	; 0xc6 <__bad_interrupt>
  50:	0c 94 63 00 	jmp	0xc6	; 0xc6 <__bad_interrupt>
  54:	0c 94 63 00 	jmp	0xc6	; 0xc6 <__bad_interrupt>
  58:	0c 94 63 00 	jmp	0xc6	; 0xc6 <__bad_interrupt>
  5c:	0c 94 63 00 	jmp	0xc6	; 0xc6 <__bad_interrupt>
  60:	0c 94 63 00 	jmp	0xc6	; 0xc6 <__bad_interrupt>
  64:	0c 94 63 00 	jmp	0xc6	; 0xc6 <__bad_interrupt>
  68:	0c 94 63 00 	jmp	0xc6	; 0xc6 <__bad_interrupt>
  6c:	0c 94 63 00 	jmp	0xc6	; 0xc6 <__bad_interrupt>
  70:	0c 94 63 00 	jmp	0xc6	; 0xc6 <__bad_interrupt>
  74:	0c 94 63 00 	jmp	0xc6	; 0xc6 <__bad_interrupt>
  78:	0c 94 63 00 	jmp	0xc6	; 0xc6 <__bad_interrupt>
  7c:	0c 94 63 00 	jmp	0xc6	; 0xc6 <__bad_interrupt>
  80:	0c 94 63 00 	jmp	0xc6	; 0xc6 <__bad_interrupt>
  84:	0c 94 63 00 	jmp	0xc6	; 0xc6 <__bad_interrupt>
  88:	0c 94 63 00 	jmp	0xc6	; 0xc6 <__bad_interrupt>

0000008c <__ctors_end>:
  8c:	11 24       	eor	r1, r1
  8e:	1f be       	out	0x3f, r1	; 63
  90:	cf ef       	ldi	r28, 0xFF	; 255
  92:	d0 e1       	ldi	r29, 0x10	; 16
  94:	de bf       	out	0x3e, r29	; 62
  96:	cd bf       	out	0x3d, r28	; 61

00000098 <__do_copy_data>:
  98:	11 e0       	ldi	r17, 0x01	; 1
  9a:	a0 e0       	ldi	r26, 0x00	; 0
  9c:	b1 e0       	ldi	r27, 0x01	; 1
  9e:	e8 e7       	ldi	r30, 0x78	; 120
  a0:	f6 e0       	ldi	r31, 0x06	; 6
  a2:	02 c0       	rjmp	.+4      	; 0xa8 <.do_copy_data_start>

000000a4 <.do_copy_data_loop>:
  a4:	05 90       	lpm	r0, Z+
  a6:	0d 92       	st	X+, r0

000000a8 <.do_copy_data_start>:
  a8:	ac 31       	cpi	r26, 0x1C	; 28
  aa:	b1 07       	cpc	r27, r17
  ac:	d9 f7       	brne	.-10     	; 0xa4 <.do_copy_data_loop>

000000ae <__do_clear_bss>:
  ae:	11 e0       	ldi	r17, 0x01	; 1
  b0:	ac e1       	ldi	r26, 0x1C	; 28
  b2:	b1 e0       	ldi	r27, 0x01	; 1
  b4:	01 c0       	rjmp	.+2      	; 0xb8 <.do_clear_bss_start>

000000b6 <.do_clear_bss_loop>:
  b6:	1d 92       	st	X+, r1

000000b8 <.do_clear_bss_start>:
  b8:	ac 35       	cpi	r26, 0x5C	; 92
  ba:	b1 07       	cpc	r27, r17
  bc:	e1 f7       	brne	.-8      	; 0xb6 <.do_clear_bss_loop>
  be:	0e 94 60 02 	call	0x4c0	; 0x4c0 <main>
  c2:	0c 94 3a 03 	jmp	0x674	; 0x674 <_exit>

000000c6 <__bad_interrupt>:
  c6:	0c 94 00 00 	jmp	0	; 0x0 <__vectors>

000000ca <spiInitAt45db>:
#if defined(_DVK501_M128_EX_)
#define CLR_SS_AT45DB() cbi(PORTB,0)
#define SET_SS_AT45DB() sbi(PORTB,0)
void spiInitAt45db(void)
{
	DDRB|=0x07;
  ca:	87 b3       	in	r24, 0x17	; 23
  cc:	87 60       	ori	r24, 0x07	; 7
  ce:	87 bb       	out	0x17, r24	; 23
	PORTB&=0xF8;
  d0:	88 b3       	in	r24, 0x18	; 24
  d2:	88 7f       	andi	r24, 0xF8	; 248
  d4:	88 bb       	out	0x18, r24	; 24
	SPCR=0x50;
  d6:	80 e5       	ldi	r24, 0x50	; 80
  d8:	8d b9       	out	0x0d, r24	; 13
	SPSR=0x01;
  da:	81 e0       	ldi	r24, 0x01	; 1
  dc:	8e b9       	out	0x0e, r24	; 14
}
  de:	08 95       	ret

000000e0 <spi_transmit_byte>:
#include <avr/io.h>

//==================================
void spi_transmit_byte(uint8_t Data)
{	
	SPDR=Data;								
  e0:	8f b9       	out	0x0f, r24	; 15
    while(!(SPSR&0x80));
  e2:	77 9b       	sbis	0x0e, 7	; 14
  e4:	fe cf       	rjmp	.-4      	; 0xe2 <spi_transmit_byte+0x2>
}
  e6:	08 95       	ret

000000e8 <write_buffer>:
//============================================================
void write_buffer(uint16_t BufferOffset,uint8_t data)
{			
  e8:	28 2f       	mov	r18, r24
	CLR_SS_AT45DB();		
  ea:	c0 98       	cbi	0x18, 0	; 24
#include <avr/io.h>

//==================================
void spi_transmit_byte(uint8_t Data)
{	
	SPDR=Data;								
  ec:	84 e8       	ldi	r24, 0x84	; 132
  ee:	8f b9       	out	0x0f, r24	; 15
    while(!(SPSR&0x80));
  f0:	77 9b       	sbis	0x0e, 7	; 14
  f2:	fe cf       	rjmp	.-4      	; 0xf0 <write_buffer+0x8>
#include <avr/io.h>

//==================================
void spi_transmit_byte(uint8_t Data)
{	
	SPDR=Data;								
  f4:	8f ef       	ldi	r24, 0xFF	; 255
  f6:	8f b9       	out	0x0f, r24	; 15
    while(!(SPSR&0x80));
  f8:	77 9b       	sbis	0x0e, 7	; 14
  fa:	fe cf       	rjmp	.-4      	; 0xf8 <write_buffer+0x10>
#include <avr/io.h>

//==================================
void spi_transmit_byte(uint8_t Data)
{	
	SPDR=Data;								
  fc:	9f b9       	out	0x0f, r25	; 15
    while(!(SPSR&0x80));
  fe:	77 9b       	sbis	0x0e, 7	; 14
 100:	fe cf       	rjmp	.-4      	; 0xfe <write_buffer+0x16>
#include <avr/io.h>

//==================================
void spi_transmit_byte(uint8_t Data)
{	
	SPDR=Data;								
 102:	2f b9       	out	0x0f, r18	; 15
    while(!(SPSR&0x80));
 104:	77 9b       	sbis	0x0e, 7	; 14
 106:	fe cf       	rjmp	.-4      	; 0x104 <write_buffer+0x1c>
#include <avr/io.h>

//==================================
void spi_transmit_byte(uint8_t Data)
{	
	SPDR=Data;								
 108:	6f b9       	out	0x0f, r22	; 15
    while(!(SPSR&0x80));
 10a:	77 9b       	sbis	0x0e, 7	; 14
 10c:	fe cf       	rjmp	.-4      	; 0x10a <write_buffer+0x22>
	spi_transmit_byte(0x84);//84			  						
	spi_transmit_byte(0xff);						
	spi_transmit_byte((uint8_t)(BufferOffset>>8));	
	spi_transmit_byte((uint8_t)BufferOffset);		
	spi_transmit_byte(data);		
	SET_SS_AT45DB();	
 10e:	c0 9a       	sbi	0x18, 0	; 24
}
 110:	08 95       	ret

00000112 <read_buffer>:
//================================================================
uint8_t read_buffer(uint16_t BufferOffset)
{		
 112:	28 2f       	mov	r18, r24
    uint8_t temp;
	CLR_SS_AT45DB();
 114:	c0 98       	cbi	0x18, 0	; 24
#include <avr/io.h>

//==================================
void spi_transmit_byte(uint8_t Data)
{	
	SPDR=Data;								
 116:	84 ed       	ldi	r24, 0xD4	; 212
 118:	8f b9       	out	0x0f, r24	; 15
    while(!(SPSR&0x80));
 11a:	77 9b       	sbis	0x0e, 7	; 14
 11c:	fe cf       	rjmp	.-4      	; 0x11a <read_buffer+0x8>
#include <avr/io.h>

//==================================
void spi_transmit_byte(uint8_t Data)
{	
	SPDR=Data;								
 11e:	8f ef       	ldi	r24, 0xFF	; 255
 120:	8f b9       	out	0x0f, r24	; 15
    while(!(SPSR&0x80));
 122:	77 9b       	sbis	0x0e, 7	; 14
 124:	fe cf       	rjmp	.-4      	; 0x122 <read_buffer+0x10>
#include <avr/io.h>

//==================================
void spi_transmit_byte(uint8_t Data)
{	
	SPDR=Data;								
 126:	9f b9       	out	0x0f, r25	; 15
    while(!(SPSR&0x80));
 128:	77 9b       	sbis	0x0e, 7	; 14
 12a:	fe cf       	rjmp	.-4      	; 0x128 <read_buffer+0x16>
#include <avr/io.h>

//==================================
void spi_transmit_byte(uint8_t Data)
{	
	SPDR=Data;								
 12c:	2f b9       	out	0x0f, r18	; 15
    while(!(SPSR&0x80));
 12e:	77 9b       	sbis	0x0e, 7	; 14
 130:	fe cf       	rjmp	.-4      	; 0x12e <read_buffer+0x1c>
#include <avr/io.h>

//==================================
void spi_transmit_byte(uint8_t Data)
{	
	SPDR=Data;								
 132:	8f ef       	ldi	r24, 0xFF	; 255
 134:	8f b9       	out	0x0f, r24	; 15
    while(!(SPSR&0x80));
 136:	77 9b       	sbis	0x0e, 7	; 14
 138:	fe cf       	rjmp	.-4      	; 0x136 <read_buffer+0x24>
#include <avr/io.h>

//==================================
void spi_transmit_byte(uint8_t Data)
{	
	SPDR=Data;								
 13a:	8f ef       	ldi	r24, 0xFF	; 255
 13c:	8f b9       	out	0x0f, r24	; 15
    while(!(SPSR&0x80));
 13e:	77 9b       	sbis	0x0e, 7	; 14
 140:	fe cf       	rjmp	.-4      	; 0x13e <read_buffer+0x2c>
	spi_transmit_byte(0xff);
	spi_transmit_byte((uint8_t)(BufferOffset>>8));
	spi_transmit_byte((uint8_t)BufferOffset);
	spi_transmit_byte(0xff);
	spi_transmit_byte(0xff);
	temp=SPDR;	  
 142:	8f b1       	in	r24, 0x0f	; 15
	SET_SS_AT45DB();
 144:	c0 9a       	sbi	0x18, 0	; 24
    return temp;								
}
 146:	08 95       	ret

00000148 <spiSendChar>:
*
*-------------------------------------------------------------------------------------------------------
*/
void spiSendChar(uint8_t send_char)
{
	SPDR = send_char;
 148:	8f b9       	out	0x0f, r24	; 15
	while (!(SPSR & (1<<SPIF)));
 14a:	77 9b       	sbis	0x0e, 7	; 14
 14c:	fe cf       	rjmp	.-4      	; 0x14a <spiSendChar+0x2>
}
 14e:	08 95       	ret

00000150 <sendCodeST7920>:
*	给LCD控制芯片ST7920发送指令的函数
*
*-------------------------------------------------------------------------------------------------------
*/
void sendCodeST7920(uint8_t code)
{
 150:	98 2f       	mov	r25, r24
*
*-------------------------------------------------------------------------------------------------------
*/
void spiSendChar(uint8_t send_char)
{
	SPDR = send_char;
 152:	88 ef       	ldi	r24, 0xF8	; 248
 154:	8f b9       	out	0x0f, r24	; 15
	while (!(SPSR & (1<<SPIF)));
 156:	77 9b       	sbis	0x0e, 7	; 14
 158:	fe cf       	rjmp	.-4      	; 0x156 <sendCodeST7920+0x6>
*-------------------------------------------------------------------------------------------------------
*/
void sendCodeST7920(uint8_t code)
{
	spiSendChar(0xF8);
	spiSendChar(code & 0xF0);
 15a:	89 2f       	mov	r24, r25
 15c:	80 7f       	andi	r24, 0xF0	; 240
*
*-------------------------------------------------------------------------------------------------------
*/
void spiSendChar(uint8_t send_char)
{
	SPDR = send_char;
 15e:	8f b9       	out	0x0f, r24	; 15
	while (!(SPSR & (1<<SPIF)));
 160:	77 9b       	sbis	0x0e, 7	; 14
 162:	fe cf       	rjmp	.-4      	; 0x160 <sendCodeST7920+0x10>
*/
void sendCodeST7920(uint8_t code)
{
	spiSendChar(0xF8);
	spiSendChar(code & 0xF0);
	spiSendChar((code<<4));
 164:	92 95       	swap	r25
 166:	90 7f       	andi	r25, 0xF0	; 240
*
*-------------------------------------------------------------------------------------------------------
*/
void spiSendChar(uint8_t send_char)
{
	SPDR = send_char;
 168:	9f b9       	out	0x0f, r25	; 15
	while (!(SPSR & (1<<SPIF)));
 16a:	77 9b       	sbis	0x0e, 7	; 14
 16c:	fe cf       	rjmp	.-4      	; 0x16a <sendCodeST7920+0x1a>
    can be achieved.
*/
void
_delay_loop_1(uint8_t __count)
{
	__asm__ volatile (
 16e:	88 eb       	ldi	r24, 0xB8	; 184
 170:	8a 95       	dec	r24
 172:	f1 f7       	brne	.-4      	; 0x170 <sendCodeST7920+0x20>
{
	spiSendChar(0xF8);
	spiSendChar(code & 0xF0);
	spiSendChar((code<<4));
	LCD_DELAY();
}
 174:	08 95       	ret

00000176 <sendDataST7920>:
*	给LCD控制芯片ST7920发送数据的函数
*
*-------------------------------------------------------------------------------------------------------
*/
void sendDataST7920(uint8_t data)
{
 176:	98 2f       	mov	r25, r24
*
*-------------------------------------------------------------------------------------------------------
*/
void spiSendChar(uint8_t send_char)
{
	SPDR = send_char;
 178:	8a ef       	ldi	r24, 0xFA	; 250
 17a:	8f b9       	out	0x0f, r24	; 15
	while (!(SPSR & (1<<SPIF)));
 17c:	77 9b       	sbis	0x0e, 7	; 14
 17e:	fe cf       	rjmp	.-4      	; 0x17c <sendDataST7920+0x6>
*-------------------------------------------------------------------------------------------------------
*/
void sendDataST7920(uint8_t data)
{
	spiSendChar(0xFA);
	spiSendChar(data & 0xF0);
 180:	89 2f       	mov	r24, r25
 182:	80 7f       	andi	r24, 0xF0	; 240
*
*-------------------------------------------------------------------------------------------------------
*/
void spiSendChar(uint8_t send_char)
{
	SPDR = send_char;
 184:	8f b9       	out	0x0f, r24	; 15
	while (!(SPSR & (1<<SPIF)));
 186:	77 9b       	sbis	0x0e, 7	; 14
 188:	fe cf       	rjmp	.-4      	; 0x186 <sendDataST7920+0x10>
*/
void sendDataST7920(uint8_t data)
{
	spiSendChar(0xFA);
	spiSendChar(data & 0xF0);
	spiSendChar((data<<4));
 18a:	92 95       	swap	r25
 18c:	90 7f       	andi	r25, 0xF0	; 240
*
*-------------------------------------------------------------------------------------------------------
*/
void spiSendChar(uint8_t send_char)
{
	SPDR = send_char;
 18e:	9f b9       	out	0x0f, r25	; 15
	while (!(SPSR & (1<<SPIF)));
 190:	77 9b       	sbis	0x0e, 7	; 14
 192:	fe cf       	rjmp	.-4      	; 0x190 <sendDataST7920+0x1a>
 194:	88 eb       	ldi	r24, 0xB8	; 184
 196:	8a 95       	dec	r24
 198:	f1 f7       	brne	.-4      	; 0x196 <sendDataST7920+0x20>
{
	spiSendChar(0xFA);
	spiSendChar(data & 0xF0);
	spiSendChar((data<<4));
	LCD_DELAY();
}
 19a:	08 95       	ret

0000019c <refreshLCD>:
*	*lcd_stack指向用于刷新LCD的数据栈,需64byte容量
*
*-------------------------------------------------------------------------------------------------------
*/
void refreshLCD(const uint8_t *lcd_stack)
{
 19c:	cf 92       	push	r12
 19e:	df 92       	push	r13
 1a0:	ef 92       	push	r14
 1a2:	ff 92       	push	r15
 1a4:	0f 93       	push	r16
 1a6:	1f 93       	push	r17
 1a8:	cf 93       	push	r28
 1aa:	df 93       	push	r29
 1ac:	6c 01       	movw	r12, r24
	uint8_t addr;
	sendCodeST7920(0x02);	/*地址归位*/
 1ae:	82 e0       	ldi	r24, 0x02	; 2
 1b0:	0e 94 a8 00 	call	0x150	; 0x150 <sendCodeST7920>
 1b4:	c0 e0       	ldi	r28, 0x00	; 0
 1b6:	d0 e0       	ldi	r29, 0x00	; 0
	for(addr=0;addr < 16;addr++)
	{
		sendDataST7920(*(lcd_stack + addr));
 1b8:	f6 01       	movw	r30, r12
 1ba:	ec 0f       	add	r30, r28
 1bc:	fd 1f       	adc	r31, r29
 1be:	80 81       	ld	r24, Z
 1c0:	0e 94 bb 00 	call	0x176	; 0x176 <sendDataST7920>
 1c4:	21 96       	adiw	r28, 0x01	; 1
*/
void refreshLCD(const uint8_t *lcd_stack)
{
	uint8_t addr;
	sendCodeST7920(0x02);	/*地址归位*/
	for(addr=0;addr < 16;addr++)
 1c6:	c0 31       	cpi	r28, 0x10	; 16
 1c8:	d1 05       	cpc	r29, r1
 1ca:	b1 f7       	brne	.-20     	; 0x1b8 <refreshLCD+0x1c>
 1cc:	76 01       	movw	r14, r12
 1ce:	e6 01       	movw	r28, r12
 1d0:	00 e2       	ldi	r16, 0x20	; 32
	{
		sendDataST7920(*(lcd_stack + addr));
	}
	for(addr=32;addr < 48;addr++)
	{
		sendDataST7920(*(lcd_stack + addr));
 1d2:	88 a1       	ldd	r24, Y+32	; 0x20
 1d4:	0e 94 bb 00 	call	0x176	; 0x176 <sendDataST7920>
	sendCodeST7920(0x02);	/*地址归位*/
	for(addr=0;addr < 16;addr++)
	{
		sendDataST7920(*(lcd_stack + addr));
	}
	for(addr=32;addr < 48;addr++)
 1d8:	0f 5f       	subi	r16, 0xFF	; 255
 1da:	21 96       	adiw	r28, 0x01	; 1
 1dc:	00 33       	cpi	r16, 0x30	; 48
 1de:	c9 f7       	brne	.-14     	; 0x1d2 <refreshLCD+0x36>
 1e0:	10 e1       	ldi	r17, 0x10	; 16
	{
		sendDataST7920(*(lcd_stack + addr));
	}
	for(addr=16;addr < 32;addr++)
	{
		sendDataST7920(*(lcd_stack + addr));
 1e2:	f7 01       	movw	r30, r14
 1e4:	80 89       	ldd	r24, Z+16	; 0x10
 1e6:	0e 94 bb 00 	call	0x176	; 0x176 <sendDataST7920>
	}
	for(addr=32;addr < 48;addr++)
	{
		sendDataST7920(*(lcd_stack + addr));
	}
	for(addr=16;addr < 32;addr++)
 1ea:	1f 5f       	subi	r17, 0xFF	; 255
 1ec:	08 94       	sec
 1ee:	e1 1c       	adc	r14, r1
 1f0:	f1 1c       	adc	r15, r1
 1f2:	10 32       	cpi	r17, 0x20	; 32
 1f4:	b1 f7       	brne	.-20     	; 0x1e2 <refreshLCD+0x46>
 1f6:	e6 01       	movw	r28, r12
 1f8:	e0 96       	adiw	r28, 0x30	; 48
		sendDataST7920(*(lcd_stack + addr));
	}
	
	for(addr=48;addr < 64;addr++)
	{
		sendDataST7920(*(lcd_stack + addr));
 1fa:	89 91       	ld	r24, Y+
 1fc:	0e 94 bb 00 	call	0x176	; 0x176 <sendDataST7920>
	for(addr=16;addr < 32;addr++)
	{
		sendDataST7920(*(lcd_stack + addr));
	}
	
	for(addr=48;addr < 64;addr++)
 200:	0f 5f       	subi	r16, 0xFF	; 255
 202:	00 34       	cpi	r16, 0x40	; 64
 204:	d1 f7       	brne	.-12     	; 0x1fa <refreshLCD+0x5e>
	{
		sendDataST7920(*(lcd_stack + addr));
	}
}
 206:	df 91       	pop	r29
 208:	cf 91       	pop	r28
 20a:	1f 91       	pop	r17
 20c:	0f 91       	pop	r16
 20e:	ff 90       	pop	r15
 210:	ef 90       	pop	r14
 212:	df 90       	pop	r13
 214:	cf 90       	pop	r12
 216:	08 95       	ret

00000218 <decToAscii>:
*	width是转换成ASCII后的宽度(高位填充'0')
*
*-------------------------------------------------------------------------------------------------------
*/
void decToAscii(uint8_t* str,uint16_t dec,uint8_t width)
{
 218:	1f 93       	push	r17
 21a:	fc 01       	movw	r30, r24
 21c:	9b 01       	movw	r18, r22
			case 1:
			{
				*str = (dec+'0');
				break;
			}
			default: *str = '0';
 21e:	10 e3       	ldi	r17, 0x30	; 48
 220:	43 c0       	rjmp	.+134    	; 0x2a8 <decToAscii+0x90>
*/
void decToAscii(uint8_t* str,uint16_t dec,uint8_t width)
{
	while(width)
	{
		switch(width)
 222:	43 30       	cpi	r20, 0x03	; 3
 224:	21 f1       	breq	.+72     	; 0x26e <decToAscii+0x56>
 226:	44 30       	cpi	r20, 0x04	; 4
 228:	28 f4       	brcc	.+10     	; 0x234 <decToAscii+0x1c>
 22a:	41 30       	cpi	r20, 0x01	; 1
 22c:	b1 f1       	breq	.+108    	; 0x29a <decToAscii+0x82>
 22e:	42 30       	cpi	r20, 0x02	; 2
 230:	c1 f5       	brne	.+112    	; 0x2a2 <decToAscii+0x8a>
 232:	28 c0       	rjmp	.+80     	; 0x284 <decToAscii+0x6c>
 234:	44 30       	cpi	r20, 0x04	; 4
 236:	69 f0       	breq	.+26     	; 0x252 <decToAscii+0x3a>
 238:	45 30       	cpi	r20, 0x05	; 5
 23a:	99 f5       	brne	.+102    	; 0x2a2 <decToAscii+0x8a>
		{
			case 5:
			{
				*str = (dec/10000+'0');
 23c:	c9 01       	movw	r24, r18
 23e:	60 e1       	ldi	r22, 0x10	; 16
 240:	77 e2       	ldi	r23, 0x27	; 39
 242:	0e 94 1f 03 	call	0x63e	; 0x63e <__udivmodhi4>
 246:	60 5d       	subi	r22, 0xD0	; 208
 248:	60 83       	st	Z, r22
				dec%=10000;
 24a:	c9 01       	movw	r24, r18
 24c:	60 e1       	ldi	r22, 0x10	; 16
 24e:	77 e2       	ldi	r23, 0x27	; 39
 250:	0a c0       	rjmp	.+20     	; 0x266 <decToAscii+0x4e>
				break;
			}			
			case 4:
			{
				*str = (dec/1000+'0');
 252:	c9 01       	movw	r24, r18
 254:	68 ee       	ldi	r22, 0xE8	; 232
 256:	73 e0       	ldi	r23, 0x03	; 3
 258:	0e 94 1f 03 	call	0x63e	; 0x63e <__udivmodhi4>
 25c:	60 5d       	subi	r22, 0xD0	; 208
 25e:	60 83       	st	Z, r22
				dec%=1000;
 260:	c9 01       	movw	r24, r18
 262:	68 ee       	ldi	r22, 0xE8	; 232
 264:	73 e0       	ldi	r23, 0x03	; 3
 266:	0e 94 1f 03 	call	0x63e	; 0x63e <__udivmodhi4>
 26a:	9c 01       	movw	r18, r24
 26c:	1b c0       	rjmp	.+54     	; 0x2a4 <decToAscii+0x8c>
				break;
			}
			case 3:
			{
				*str = (dec/100+'0');
 26e:	c9 01       	movw	r24, r18
 270:	64 e6       	ldi	r22, 0x64	; 100
 272:	70 e0       	ldi	r23, 0x00	; 0
 274:	0e 94 1f 03 	call	0x63e	; 0x63e <__udivmodhi4>
 278:	60 5d       	subi	r22, 0xD0	; 208
 27a:	60 83       	st	Z, r22
				dec%=100;
 27c:	c9 01       	movw	r24, r18
 27e:	64 e6       	ldi	r22, 0x64	; 100
 280:	70 e0       	ldi	r23, 0x00	; 0
 282:	f1 cf       	rjmp	.-30     	; 0x266 <decToAscii+0x4e>
				break;
			}
			case 2:
			{
				*str = (dec/10+'0');
 284:	c9 01       	movw	r24, r18
 286:	6a e0       	ldi	r22, 0x0A	; 10
 288:	70 e0       	ldi	r23, 0x00	; 0
 28a:	0e 94 1f 03 	call	0x63e	; 0x63e <__udivmodhi4>
 28e:	60 5d       	subi	r22, 0xD0	; 208
 290:	60 83       	st	Z, r22
				dec%=10;
 292:	c9 01       	movw	r24, r18
 294:	6a e0       	ldi	r22, 0x0A	; 10
 296:	70 e0       	ldi	r23, 0x00	; 0
 298:	e6 cf       	rjmp	.-52     	; 0x266 <decToAscii+0x4e>
				break;
			}
			case 1:
			{
				*str = (dec+'0');
 29a:	20 5d       	subi	r18, 0xD0	; 208
 29c:	20 83       	st	Z, r18
 29e:	20 53       	subi	r18, 0x30	; 48
 2a0:	01 c0       	rjmp	.+2      	; 0x2a4 <decToAscii+0x8c>
				break;
			}
			default: *str = '0';
 2a2:	10 83       	st	Z, r17
		}
		width--;
 2a4:	41 50       	subi	r20, 0x01	; 1
		str++;
 2a6:	31 96       	adiw	r30, 0x01	; 1
*
*-------------------------------------------------------------------------------------------------------
*/
void decToAscii(uint8_t* str,uint16_t dec,uint8_t width)
{
	while(width)
 2a8:	44 23       	and	r20, r20
 2aa:	09 f0       	breq	.+2      	; 0x2ae <decToAscii+0x96>
 2ac:	ba cf       	rjmp	.-140    	; 0x222 <decToAscii+0xa>
			default: *str = '0';
		}
		width--;
		str++;
	}
}
 2ae:	1f 91       	pop	r17
 2b0:	08 95       	ret

000002b2 <hexToAscii>:
*	width是转换成ASCII后的宽度(高位填充'0')
*
*-------------------------------------------------------------------------------------------------------
*/
void hexToAscii(uint8_t* str,uint16_t hex,uint8_t width)
{
 2b2:	cf 92       	push	r12
 2b4:	df 92       	push	r13
 2b6:	ef 92       	push	r14
 2b8:	ff 92       	push	r15
 2ba:	0f 93       	push	r16
 2bc:	1f 93       	push	r17
 2be:	cf 93       	push	r28
 2c0:	df 93       	push	r29
 2c2:	fc 01       	movw	r30, r24
	{
		switch(width)
		{		
			case 4:
			{
				tmp=(hex>>12);
 2c4:	eb 01       	movw	r28, r22
 2c6:	cd 2f       	mov	r28, r29
 2c8:	dd 27       	eor	r29, r29
 2ca:	c2 95       	swap	r28
 2cc:	cf 70       	andi	r28, 0x0F	; 15
				if(tmp>9) *str = tmp+('A'-10);
 2ce:	27 e3       	ldi	r18, 0x37	; 55
 2d0:	d2 2e       	mov	r13, r18
 2d2:	dc 0e       	add	r13, r28
				else *str = tmp+'0';
 2d4:	90 e3       	ldi	r25, 0x30	; 48
 2d6:	e9 2e       	mov	r14, r25
 2d8:	ec 0e       	add	r14, r28
				break;
			}
			case 3:
			{
				tmp=(hex>>8)&0x000F;
 2da:	a7 2f       	mov	r26, r23
 2dc:	bb 27       	eor	r27, r27
 2de:	af 70       	andi	r26, 0x0F	; 15
 2e0:	b0 70       	andi	r27, 0x00	; 0
				if(tmp>9) *str = tmp+('A'-10);
 2e2:	17 e3       	ldi	r17, 0x37	; 55
 2e4:	f1 2e       	mov	r15, r17
 2e6:	fa 0e       	add	r15, r26
				else *str = tmp+'0';
 2e8:	0a 2f       	mov	r16, r26
 2ea:	00 5d       	subi	r16, 0xD0	; 208
				break;
			}
			case 2:
			{
				tmp=(hex>>4)&0x000F;
 2ec:	9b 01       	movw	r18, r22
 2ee:	54 e0       	ldi	r21, 0x04	; 4
 2f0:	36 95       	lsr	r19
 2f2:	27 95       	ror	r18
 2f4:	5a 95       	dec	r21
 2f6:	e1 f7       	brne	.-8      	; 0x2f0 <hexToAscii+0x3e>
 2f8:	2f 70       	andi	r18, 0x0F	; 15
 2fa:	30 70       	andi	r19, 0x00	; 0
				if(tmp>9) *str = tmp+('A'-10);
 2fc:	82 2f       	mov	r24, r18
 2fe:	12 2f       	mov	r17, r18
 300:	19 5c       	subi	r17, 0xC9	; 201
				else *str = tmp+'0';
 302:	80 5d       	subi	r24, 0xD0	; 208
				tmp=hex&0x000F;
				if(tmp>9) *str = tmp+('A'-10);
				else *str = tmp+'0';
				break;
			}
			default: *str = '0';
 304:	90 e3       	ldi	r25, 0x30	; 48
 306:	c9 2e       	mov	r12, r25
				else *str = tmp+'0';
				break;
			}
			case 1:
			{
				tmp=hex&0x000F;
 308:	6f 70       	andi	r22, 0x0F	; 15
 30a:	70 70       	andi	r23, 0x00	; 0
				if(tmp>9) *str = tmp+('A'-10);
				else *str = tmp+'0';
 30c:	56 2f       	mov	r21, r22
 30e:	50 5d       	subi	r21, 0xD0	; 208
				break;
			}
			case 1:
			{
				tmp=hex&0x000F;
				if(tmp>9) *str = tmp+('A'-10);
 310:	96 2f       	mov	r25, r22
 312:	99 5c       	subi	r25, 0xC9	; 201
 314:	2a c0       	rjmp	.+84     	; 0x36a <hexToAscii+0xb8>
void hexToAscii(uint8_t* str,uint16_t hex,uint8_t width)
{
	uint16_t tmp;
	while(width)
	{
		switch(width)
 316:	42 30       	cpi	r20, 0x02	; 2
 318:	b9 f0       	breq	.+46     	; 0x348 <hexToAscii+0x96>
 31a:	43 30       	cpi	r20, 0x03	; 3
 31c:	18 f4       	brcc	.+6      	; 0x324 <hexToAscii+0x72>
 31e:	41 30       	cpi	r20, 0x01	; 1
 320:	09 f5       	brne	.+66     	; 0x364 <hexToAscii+0xb2>
 322:	19 c0       	rjmp	.+50     	; 0x356 <hexToAscii+0xa4>
 324:	43 30       	cpi	r20, 0x03	; 3
 326:	49 f0       	breq	.+18     	; 0x33a <hexToAscii+0x88>
 328:	44 30       	cpi	r20, 0x04	; 4
 32a:	e1 f4       	brne	.+56     	; 0x364 <hexToAscii+0xb2>
		{		
			case 4:
			{
				tmp=(hex>>12);
				if(tmp>9) *str = tmp+('A'-10);
 32c:	ca 30       	cpi	r28, 0x0A	; 10
 32e:	d1 05       	cpc	r29, r1
 330:	10 f0       	brcs	.+4      	; 0x336 <hexToAscii+0x84>
 332:	d0 82       	st	Z, r13
 334:	18 c0       	rjmp	.+48     	; 0x366 <hexToAscii+0xb4>
				else *str = tmp+'0';
 336:	e0 82       	st	Z, r14
 338:	16 c0       	rjmp	.+44     	; 0x366 <hexToAscii+0xb4>
				break;
			}
			case 3:
			{
				tmp=(hex>>8)&0x000F;
				if(tmp>9) *str = tmp+('A'-10);
 33a:	aa 30       	cpi	r26, 0x0A	; 10
 33c:	b1 05       	cpc	r27, r1
 33e:	10 f0       	brcs	.+4      	; 0x344 <hexToAscii+0x92>
 340:	f0 82       	st	Z, r15
 342:	11 c0       	rjmp	.+34     	; 0x366 <hexToAscii+0xb4>
				else *str = tmp+'0';
 344:	00 83       	st	Z, r16
 346:	0f c0       	rjmp	.+30     	; 0x366 <hexToAscii+0xb4>
				break;
			}
			case 2:
			{
				tmp=(hex>>4)&0x000F;
				if(tmp>9) *str = tmp+('A'-10);
 348:	2a 30       	cpi	r18, 0x0A	; 10
 34a:	31 05       	cpc	r19, r1
 34c:	10 f0       	brcs	.+4      	; 0x352 <hexToAscii+0xa0>
 34e:	10 83       	st	Z, r17
 350:	0a c0       	rjmp	.+20     	; 0x366 <hexToAscii+0xb4>
				else *str = tmp+'0';
 352:	80 83       	st	Z, r24
 354:	08 c0       	rjmp	.+16     	; 0x366 <hexToAscii+0xb4>
				break;
			}
			case 1:
			{
				tmp=hex&0x000F;
				if(tmp>9) *str = tmp+('A'-10);
 356:	6a 30       	cpi	r22, 0x0A	; 10
 358:	71 05       	cpc	r23, r1
 35a:	10 f0       	brcs	.+4      	; 0x360 <hexToAscii+0xae>
 35c:	90 83       	st	Z, r25
 35e:	03 c0       	rjmp	.+6      	; 0x366 <hexToAscii+0xb4>
				else *str = tmp+'0';
 360:	50 83       	st	Z, r21
 362:	01 c0       	rjmp	.+2      	; 0x366 <hexToAscii+0xb4>
				break;
			}
			default: *str = '0';
 364:	c0 82       	st	Z, r12
		}
		width--;
 366:	41 50       	subi	r20, 0x01	; 1
		str++;
 368:	31 96       	adiw	r30, 0x01	; 1
*-------------------------------------------------------------------------------------------------------
*/
void hexToAscii(uint8_t* str,uint16_t hex,uint8_t width)
{
	uint16_t tmp;
	while(width)
 36a:	44 23       	and	r20, r20
 36c:	a1 f6       	brne	.-88     	; 0x316 <hexToAscii+0x64>
			default: *str = '0';
		}
		width--;
		str++;
	}
}
 36e:	df 91       	pop	r29
 370:	cf 91       	pop	r28
 372:	1f 91       	pop	r17
 374:	0f 91       	pop	r16
 376:	ff 90       	pop	r15
 378:	ef 90       	pop	r14
 37a:	df 90       	pop	r13
 37c:	cf 90       	pop	r12
 37e:	08 95       	ret

00000380 <st7920LcdInit>:
#define CLR_CS_LCD() cbi(PORTB,4)
#define OUT_CS_LCD() sbi(DDRB,4)

void st7920LcdInit(void)
{
DDRB|=0x07;
 380:	87 b3       	in	r24, 0x17	; 23
 382:	87 60       	ori	r24, 0x07	; 7
 384:	87 bb       	out	0x17, r24	; 23
PORTB&=0xF8;
 386:	88 b3       	in	r24, 0x18	; 24
 388:	88 7f       	andi	r24, 0xF8	; 248
 38a:	88 bb       	out	0x18, r24	; 24
// SPI Type: Master
// SPI Clock Rate: 2*1843.200 kHz
// SPI Clock Phase: Cycle Half
// SPI Clock Polarity: Low
// SPI Data Order: MSB First
SPCR=0x50;
 38c:	80 e5       	ldi	r24, 0x50	; 80
 38e:	8d b9       	out	0x0d, r24	; 13
SPSR=0x01;
 390:	81 e0       	ldi	r24, 0x01	; 1
 392:	8e b9       	out	0x0e, r24	; 14
sendCodeST7920(0x0C);//整体显示
 394:	8c e0       	ldi	r24, 0x0C	; 12
 396:	0e 94 a8 00 	call	0x150	; 0x150 <sendCodeST7920>
sendCodeST7920(0x01);//清屏
 39a:	81 e0       	ldi	r24, 0x01	; 1
 39c:	0e 94 a8 00 	call	0x150	; 0x150 <sendCodeST7920>
    milliseconds can be achieved.
 */
void
_delay_loop_2(uint16_t __count)
{
	__asm__ volatile (
 3a0:	86 e6       	ldi	r24, 0x66	; 102
 3a2:	9e e0       	ldi	r25, 0x0E	; 14
 3a4:	01 97       	sbiw	r24, 0x01	; 1
 3a6:	f1 f7       	brne	.-4      	; 0x3a4 <st7920LcdInit+0x24>
_delay_ms(2);
memset(lcd_buffer,' ',sizeof(lcd_buffer));
 3a8:	8c e1       	ldi	r24, 0x1C	; 28
 3aa:	91 e0       	ldi	r25, 0x01	; 1
 3ac:	60 e2       	ldi	r22, 0x20	; 32
 3ae:	70 e0       	ldi	r23, 0x00	; 0
 3b0:	40 e4       	ldi	r20, 0x40	; 64
 3b2:	50 e0       	ldi	r21, 0x00	; 0
 3b4:	0e 94 33 03 	call	0x666	; 0x666 <memset>
}
 3b8:	08 95       	ret

000003ba <showLine>:
*	*str指向用于将要显示的内容
*
*-------------------------------------------------------------------------------------------------------
*/
void showLine(const uint8_t x,const uint8_t y,uint8_t* lcd_stack,char * str,...)
{
 3ba:	af 92       	push	r10
 3bc:	bf 92       	push	r11
 3be:	cf 92       	push	r12
 3c0:	df 92       	push	r13
 3c2:	ef 92       	push	r14
 3c4:	ff 92       	push	r15
 3c6:	0f 93       	push	r16
 3c8:	df 93       	push	r29
 3ca:	cf 93       	push	r28
 3cc:	cd b7       	in	r28, 0x3d	; 61
 3ce:	de b7       	in	r29, 0x3e	; 62
 3d0:	0d 85       	ldd	r16, Y+13	; 0x0d
 3d2:	ae 84       	ldd	r10, Y+14	; 0x0e
 3d4:	bf 84       	ldd	r11, Y+15	; 0x0f
 3d6:	e8 88       	ldd	r14, Y+16	; 0x10
 3d8:	f9 88       	ldd	r15, Y+17	; 0x11
	uint8_t coordinate = 16*y + x;
 3da:	02 95       	swap	r16
 3dc:	00 7f       	andi	r16, 0xF0	; 240
 3de:	8c 85       	ldd	r24, Y+12	; 0x0c
 3e0:	08 0f       	add	r16, r24
*	*str指向用于将要显示的内容
*
*-------------------------------------------------------------------------------------------------------
*/
void showLine(const uint8_t x,const uint8_t y,uint8_t* lcd_stack,char * str,...)
{
 3e2:	de 01       	movw	r26, r28
 3e4:	52 96       	adiw	r26, 0x12	; 18
 3e6:	5d c0       	rjmp	.+186    	; 0x4a2 <showLine+0xe8>
	uint8_t coordinate = 16*y + x;
	va_list marker;
	va_start(marker,str); /* Initialize variable arguments. */ 
	while(*str!='\0')
	{
		if(coordinate>64) break;	/*防止堆栈溢出*/
 3e8:	01 34       	cpi	r16, 0x41	; 65
 3ea:	08 f0       	brcs	.+2      	; 0x3ee <showLine+0x34>
 3ec:	5f c0       	rjmp	.+190    	; 0x4ac <showLine+0xf2>

		if(*str == '\\')
 3ee:	8c 35       	cpi	r24, 0x5C	; 92
 3f0:	51 f4       	brne	.+20     	; 0x406 <showLine+0x4c>
		{
			str++;
 3f2:	08 94       	sec
 3f4:	e1 1c       	adc	r14, r1
 3f6:	f1 1c       	adc	r15, r1
			lcd_stack[coordinate] = *str;
 3f8:	95 01       	movw	r18, r10
 3fa:	20 0f       	add	r18, r16
 3fc:	31 1d       	adc	r19, r1
 3fe:	f7 01       	movw	r30, r14
 400:	80 81       	ld	r24, Z
 402:	f9 01       	movw	r30, r18
 404:	49 c0       	rjmp	.+146    	; 0x498 <showLine+0xde>
		}
		else if(*str == '%')
 406:	85 32       	cpi	r24, 0x25	; 37
 408:	09 f0       	breq	.+2      	; 0x40c <showLine+0x52>
 40a:	43 c0       	rjmp	.+134    	; 0x492 <showLine+0xd8>
		{
			str++;
 40c:	08 94       	sec
 40e:	e1 1c       	adc	r14, r1
 410:	f1 1c       	adc	r15, r1
			if (*str=='d'||*str=='D')
 412:	f7 01       	movw	r30, r14
 414:	80 81       	ld	r24, Z
 416:	84 36       	cpi	r24, 0x64	; 100
 418:	11 f0       	breq	.+4      	; 0x41e <showLine+0x64>
 41a:	84 34       	cpi	r24, 0x44	; 68
 41c:	99 f4       	brne	.+38     	; 0x444 <showLine+0x8a>
			{
				str++;
 41e:	08 94       	sec
 420:	e1 1c       	adc	r14, r1
 422:	f1 1c       	adc	r15, r1
				decToAscii(&lcd_stack[coordinate],va_arg(marker,uint16_t),(*str-'0'));
 424:	52 e0       	ldi	r21, 0x02	; 2
 426:	c5 2e       	mov	r12, r21
 428:	d1 2c       	mov	r13, r1
 42a:	ca 0e       	add	r12, r26
 42c:	db 1e       	adc	r13, r27
 42e:	6d 91       	ld	r22, X+
 430:	7c 91       	ld	r23, X
 432:	f7 01       	movw	r30, r14
 434:	40 81       	ld	r20, Z
 436:	40 53       	subi	r20, 0x30	; 48
 438:	c5 01       	movw	r24, r10
 43a:	80 0f       	add	r24, r16
 43c:	91 1d       	adc	r25, r1
 43e:	0e 94 0c 01 	call	0x218	; 0x218 <decToAscii>
 442:	21 c0       	rjmp	.+66     	; 0x486 <showLine+0xcc>
				coordinate+=(*str-'0'-1);
			}
			else if(*str=='c'||*str=='C')
 444:	83 36       	cpi	r24, 0x63	; 99
 446:	11 f0       	breq	.+4      	; 0x44c <showLine+0x92>
 448:	83 34       	cpi	r24, 0x43	; 67
 44a:	39 f4       	brne	.+14     	; 0x45a <showLine+0xa0>
			{
				lcd_stack[coordinate] = va_arg(marker,uint16_t);
 44c:	f5 01       	movw	r30, r10
 44e:	e0 0f       	add	r30, r16
 450:	f1 1d       	adc	r31, r1
 452:	8c 91       	ld	r24, X
 454:	80 83       	st	Z, r24
 456:	12 96       	adiw	r26, 0x02	; 2
 458:	20 c0       	rjmp	.+64     	; 0x49a <showLine+0xe0>
			}
			else if(*str=='x'||*str=='X')
 45a:	88 37       	cpi	r24, 0x78	; 120
 45c:	11 f0       	breq	.+4      	; 0x462 <showLine+0xa8>
 45e:	88 35       	cpi	r24, 0x58	; 88
 460:	e1 f4       	brne	.+56     	; 0x49a <showLine+0xe0>
			{
				str++;
 462:	08 94       	sec
 464:	e1 1c       	adc	r14, r1
 466:	f1 1c       	adc	r15, r1
				hexToAscii(&lcd_stack[coordinate],va_arg(marker,uint16_t),(*str-'0'));
 468:	42 e0       	ldi	r20, 0x02	; 2
 46a:	c4 2e       	mov	r12, r20
 46c:	d1 2c       	mov	r13, r1
 46e:	ca 0e       	add	r12, r26
 470:	db 1e       	adc	r13, r27
 472:	6d 91       	ld	r22, X+
 474:	7c 91       	ld	r23, X
 476:	f7 01       	movw	r30, r14
 478:	40 81       	ld	r20, Z
 47a:	40 53       	subi	r20, 0x30	; 48
 47c:	c5 01       	movw	r24, r10
 47e:	80 0f       	add	r24, r16
 480:	91 1d       	adc	r25, r1
 482:	0e 94 59 01 	call	0x2b2	; 0x2b2 <hexToAscii>
				coordinate+=(*str-'0'-1);
 486:	01 53       	subi	r16, 0x31	; 49
 488:	f7 01       	movw	r30, r14
 48a:	80 81       	ld	r24, Z
 48c:	08 0f       	add	r16, r24
 48e:	d6 01       	movw	r26, r12
 490:	04 c0       	rjmp	.+8      	; 0x49a <showLine+0xe0>
			}
		}
		/*如有新的转义符指令请添加在这里*/
		else
		{
			lcd_stack[coordinate] = *str;
 492:	f5 01       	movw	r30, r10
 494:	e0 0f       	add	r30, r16
 496:	f1 1d       	adc	r31, r1
 498:	80 83       	st	Z, r24
		}
		str++;
 49a:	08 94       	sec
 49c:	e1 1c       	adc	r14, r1
 49e:	f1 1c       	adc	r15, r1
		coordinate++;
 4a0:	0f 5f       	subi	r16, 0xFF	; 255
void showLine(const uint8_t x,const uint8_t y,uint8_t* lcd_stack,char * str,...)
{
	uint8_t coordinate = 16*y + x;
	va_list marker;
	va_start(marker,str); /* Initialize variable arguments. */ 
	while(*str!='\0')
 4a2:	f7 01       	movw	r30, r14
 4a4:	80 81       	ld	r24, Z
 4a6:	88 23       	and	r24, r24
 4a8:	09 f0       	breq	.+2      	; 0x4ac <showLine+0xf2>
 4aa:	9e cf       	rjmp	.-196    	; 0x3e8 <showLine+0x2e>
		}
		str++;
		coordinate++;
	}
	va_end( marker ); /* Reset variable arguments. */ 
}
 4ac:	cf 91       	pop	r28
 4ae:	df 91       	pop	r29
 4b0:	0f 91       	pop	r16
 4b2:	ff 90       	pop	r15
 4b4:	ef 90       	pop	r14
 4b6:	df 90       	pop	r13
 4b8:	cf 90       	pop	r12
 4ba:	bf 90       	pop	r11
 4bc:	af 90       	pop	r10
 4be:	08 95       	ret

000004c0 <main>:
#include <util/delay.h>
#include <ws_at45dbxxx_port.h>
#include <ws_lcd_ST7920_port.h>

int main(void)
{
 4c0:	5f 92       	push	r5
 4c2:	6f 92       	push	r6
 4c4:	7f 92       	push	r7
 4c6:	8f 92       	push	r8
 4c8:	9f 92       	push	r9
 4ca:	af 92       	push	r10
 4cc:	bf 92       	push	r11
 4ce:	cf 92       	push	r12
 4d0:	df 92       	push	r13
 4d2:	ef 92       	push	r14
 4d4:	ff 92       	push	r15
 4d6:	0f 93       	push	r16
 4d8:	1f 93       	push	r17
 4da:	df 93       	push	r29
 4dc:	cf 93       	push	r28
 4de:	cd b7       	in	r28, 0x3d	; 61
 4e0:	de b7       	in	r29, 0x3e	; 62
 4e2:	cf 5f       	subi	r28, 0xFF	; 255
 4e4:	d0 40       	sbci	r29, 0x00	; 0
 4e6:	0f b6       	in	r0, 0x3f	; 63
 4e8:	f8 94       	cli
 4ea:	de bf       	out	0x3e, r29	; 62
 4ec:	0f be       	out	0x3f, r0	; 63
 4ee:	cd bf       	out	0x3d, r28	; 61
	uint8_t num;
	uint8_t tmp[255];
	DDRA=0xFF;
 4f0:	8f ef       	ldi	r24, 0xFF	; 255
 4f2:	8a bb       	out	0x1a, r24	; 26
	spiInitAt45db();
 4f4:	0e 94 65 00 	call	0xca	; 0xca <spiInitAt45db>
 4f8:	00 e0       	ldi	r16, 0x00	; 0
 4fa:	10 e0       	ldi	r17, 0x00	; 0
 4fc:	b3 e3       	ldi	r27, 0x33	; 51
 4fe:	eb 2e       	mov	r14, r27
 500:	b7 e0       	ldi	r27, 0x07	; 7
 502:	fb 2e       	mov	r15, r27
	for(num=0;num<255;num++) /*写入flash*/
	{
		write_buffer((uint16_t)num,num);
 504:	c8 01       	movw	r24, r16
 506:	60 2f       	mov	r22, r16
 508:	0e 94 74 00 	call	0xe8	; 0xe8 <write_buffer>
 50c:	c7 01       	movw	r24, r14
 50e:	01 97       	sbiw	r24, 0x01	; 1
 510:	f1 f7       	brne	.-4      	; 0x50e <main+0x4e>
 512:	0f 5f       	subi	r16, 0xFF	; 255
 514:	1f 4f       	sbci	r17, 0xFF	; 255
{
	uint8_t num;
	uint8_t tmp[255];
	DDRA=0xFF;
	spiInitAt45db();
	for(num=0;num<255;num++) /*写入flash*/
 516:	0f 3f       	cpi	r16, 0xFF	; 255
 518:	11 05       	cpc	r17, r1
 51a:	a1 f7       	brne	.-24     	; 0x504 <main+0x44>
 51c:	00 e0       	ldi	r16, 0x00	; 0
 51e:	10 e0       	ldi	r17, 0x00	; 0
		write_buffer((uint16_t)num,num);
		_delay_ms(1);
	}
	for(num=0;num<255;num++) /*读出flash*/
	{
		tmp[num]=read_buffer(num);
 520:	6e 01       	movw	r12, r28
 522:	08 94       	sec
 524:	c1 1c       	adc	r12, r1
 526:	d1 1c       	adc	r13, r1
 528:	a3 e3       	ldi	r26, 0x33	; 51
 52a:	ea 2e       	mov	r14, r26
 52c:	a7 e0       	ldi	r26, 0x07	; 7
 52e:	fa 2e       	mov	r15, r26
 530:	c8 01       	movw	r24, r16
 532:	0e 94 89 00 	call	0x112	; 0x112 <read_buffer>
 536:	f6 01       	movw	r30, r12
 538:	e0 0f       	add	r30, r16
 53a:	f1 1f       	adc	r31, r17
 53c:	80 83       	st	Z, r24
 53e:	c7 01       	movw	r24, r14
 540:	01 97       	sbiw	r24, 0x01	; 1
 542:	f1 f7       	brne	.-4      	; 0x540 <main+0x80>
 544:	0f 5f       	subi	r16, 0xFF	; 255
 546:	1f 4f       	sbci	r17, 0xFF	; 255
	for(num=0;num<255;num++) /*写入flash*/
	{
		write_buffer((uint16_t)num,num);
		_delay_ms(1);
	}
	for(num=0;num<255;num++) /*读出flash*/
 548:	0f 3f       	cpi	r16, 0xFF	; 255
 54a:	11 05       	cpc	r17, r1
 54c:	89 f7       	brne	.-30     	; 0x530 <main+0x70>
	{
		tmp[num]=read_buffer(num);
		_delay_ms(1);
	}
	st7920LcdInit(); /*LCD初始化*/
 54e:	0e 94 c0 01 	call	0x380	; 0x380 <st7920LcdInit>
	showLine(0,0,lcd_buffer,"深圳微雪电子");
 552:	00 d0       	rcall	.+0      	; 0x554 <main+0x94>
 554:	00 d0       	rcall	.+0      	; 0x556 <main+0x96>
 556:	00 d0       	rcall	.+0      	; 0x558 <main+0x98>
 558:	ed b7       	in	r30, 0x3d	; 61
 55a:	fe b7       	in	r31, 0x3e	; 62
 55c:	31 96       	adiw	r30, 0x01	; 1
 55e:	ad b7       	in	r26, 0x3d	; 61
 560:	be b7       	in	r27, 0x3e	; 62
 562:	11 96       	adiw	r26, 0x01	; 1
 564:	1c 92       	st	X, r1
 566:	11 82       	std	Z+1, r1	; 0x01
 568:	0c e1       	ldi	r16, 0x1C	; 28
 56a:	11 e0       	ldi	r17, 0x01	; 1
 56c:	13 83       	std	Z+3, r17	; 0x03
 56e:	02 83       	std	Z+2, r16	; 0x02
 570:	80 e0       	ldi	r24, 0x00	; 0
 572:	91 e0       	ldi	r25, 0x01	; 1
 574:	95 83       	std	Z+5, r25	; 0x05
 576:	84 83       	std	Z+4, r24	; 0x04
 578:	0e 94 dd 01 	call	0x3ba	; 0x3ba <showLine>
	showLine(0,1,lcd_buffer,"读取flash:");
 57c:	ed b7       	in	r30, 0x3d	; 61
 57e:	fe b7       	in	r31, 0x3e	; 62
 580:	31 96       	adiw	r30, 0x01	; 1
 582:	ad b7       	in	r26, 0x3d	; 61
 584:	be b7       	in	r27, 0x3e	; 62
 586:	11 96       	adiw	r26, 0x01	; 1
 588:	1c 92       	st	X, r1
 58a:	81 e0       	ldi	r24, 0x01	; 1
 58c:	81 83       	std	Z+1, r24	; 0x01
 58e:	13 83       	std	Z+3, r17	; 0x03
 590:	02 83       	std	Z+2, r16	; 0x02
 592:	8d e0       	ldi	r24, 0x0D	; 13
 594:	91 e0       	ldi	r25, 0x01	; 1
 596:	95 83       	std	Z+5, r25	; 0x05
 598:	84 83       	std	Z+4, r24	; 0x04
 59a:	0e 94 dd 01 	call	0x3ba	; 0x3ba <showLine>
	refreshLCD(lcd_buffer); /*刷新LCD*/
 59e:	8d b7       	in	r24, 0x3d	; 61
 5a0:	9e b7       	in	r25, 0x3e	; 62
 5a2:	06 96       	adiw	r24, 0x06	; 6
 5a4:	0f b6       	in	r0, 0x3f	; 63
 5a6:	f8 94       	cli
 5a8:	9e bf       	out	0x3e, r25	; 62
 5aa:	0f be       	out	0x3f, r0	; 63
 5ac:	8d bf       	out	0x3d, r24	; 61
 5ae:	c8 01       	movw	r24, r16
 5b0:	0e 94 ce 00 	call	0x19c	; 0x19c <refreshLCD>
 5b4:	76 01       	movw	r14, r12
	for(num=0;num<255;num++)
	{
		showLine(11,1,lcd_buffer,"%d3",tmp[num]);
 5b6:	fb e0       	ldi	r31, 0x0B	; 11
 5b8:	5f 2e       	mov	r5, r31
 5ba:	cc 24       	eor	r12, r12
 5bc:	c3 94       	inc	r12
 5be:	d0 2e       	mov	r13, r16
 5c0:	01 2f       	mov	r16, r17
 5c2:	e8 e1       	ldi	r30, 0x18	; 24
 5c4:	6e 2e       	mov	r6, r30
 5c6:	e1 e0       	ldi	r30, 0x01	; 1
 5c8:	7e 2e       	mov	r7, r30
 5ca:	78 eb       	ldi	r23, 0xB8	; 184
 5cc:	87 2e       	mov	r8, r23
 5ce:	91 2c       	mov	r9, r1
	}
	st7920LcdInit(); /*LCD初始化*/
	showLine(0,0,lcd_buffer,"深圳微雪电子");
	showLine(0,1,lcd_buffer,"读取flash:");
	refreshLCD(lcd_buffer); /*刷新LCD*/
	for(num=0;num<255;num++)
 5d0:	a1 2c       	mov	r10, r1
 5d2:	61 e0       	ldi	r22, 0x01	; 1
 5d4:	b6 2e       	mov	r11, r22
 5d6:	ac 0e       	add	r10, r28
 5d8:	bd 1e       	adc	r11, r29
	{
		showLine(11,1,lcd_buffer,"%d3",tmp[num]);
 5da:	ad b7       	in	r26, 0x3d	; 61
 5dc:	be b7       	in	r27, 0x3e	; 62
 5de:	18 97       	sbiw	r26, 0x08	; 8
 5e0:	0f b6       	in	r0, 0x3f	; 63
 5e2:	f8 94       	cli
 5e4:	be bf       	out	0x3e, r27	; 62
 5e6:	0f be       	out	0x3f, r0	; 63
 5e8:	ad bf       	out	0x3d, r26	; 61
 5ea:	ed b7       	in	r30, 0x3d	; 61
 5ec:	fe b7       	in	r31, 0x3e	; 62
 5ee:	31 96       	adiw	r30, 0x01	; 1
 5f0:	11 96       	adiw	r26, 0x01	; 1
 5f2:	5c 92       	st	X, r5
 5f4:	c1 82       	std	Z+1, r12	; 0x01
 5f6:	d2 82       	std	Z+2, r13	; 0x02
 5f8:	03 83       	std	Z+3, r16	; 0x03
 5fa:	75 82       	std	Z+5, r7	; 0x05
 5fc:	64 82       	std	Z+4, r6	; 0x04
 5fe:	d7 01       	movw	r26, r14
 600:	8c 91       	ld	r24, X
 602:	86 83       	std	Z+6, r24	; 0x06
 604:	17 82       	std	Z+7, r1	; 0x07
 606:	0e 94 dd 01 	call	0x3ba	; 0x3ba <showLine>
		refreshLCD(lcd_buffer); /*刷新LCD*/
 60a:	8d b7       	in	r24, 0x3d	; 61
 60c:	9e b7       	in	r25, 0x3e	; 62
 60e:	08 96       	adiw	r24, 0x08	; 8
 610:	0f b6       	in	r0, 0x3f	; 63
 612:	f8 94       	cli
 614:	9e bf       	out	0x3e, r25	; 62
 616:	0f be       	out	0x3f, r0	; 63
 618:	8d bf       	out	0x3d, r24	; 61
 61a:	8d 2d       	mov	r24, r13
 61c:	90 2f       	mov	r25, r16
 61e:	0e 94 ce 00 	call	0x19c	; 0x19c <refreshLCD>
 622:	80 e1       	ldi	r24, 0x10	; 16
 624:	97 e2       	ldi	r25, 0x27	; 39
 626:	f4 01       	movw	r30, r8
 628:	31 97       	sbiw	r30, 0x01	; 1
 62a:	f1 f7       	brne	.-4      	; 0x628 <main+0x168>
		__ticks = (uint16_t) (__ms * 10.0);
		while(__ticks)
		{
			// wait 1/10 ms
			_delay_loop_2(((F_CPU) / 4e3) / 10);
			__ticks --;
 62c:	01 97       	sbiw	r24, 0x01	; 1
		__ticks = 1;
	else if (__tmp > 65535)
	{
		//	__ticks = requested delay in 1/10 ms
		__ticks = (uint16_t) (__ms * 10.0);
		while(__ticks)
 62e:	d9 f7       	brne	.-10     	; 0x626 <main+0x166>
 630:	08 94       	sec
 632:	e1 1c       	adc	r14, r1
 634:	f1 1c       	adc	r15, r1
	}
	st7920LcdInit(); /*LCD初始化*/
	showLine(0,0,lcd_buffer,"深圳微雪电子");
	showLine(0,1,lcd_buffer,"读取flash:");
	refreshLCD(lcd_buffer); /*刷新LCD*/
	for(num=0;num<255;num++)
 636:	ea 14       	cp	r14, r10
 638:	fb 04       	cpc	r15, r11
 63a:	79 f6       	brne	.-98     	; 0x5da <main+0x11a>
 63c:	ff cf       	rjmp	.-2      	; 0x63c <main+0x17c>

0000063e <__udivmodhi4>:
 63e:	aa 1b       	sub	r26, r26
 640:	bb 1b       	sub	r27, r27
 642:	51 e1       	ldi	r21, 0x11	; 17
 644:	07 c0       	rjmp	.+14     	; 0x654 <__udivmodhi4_ep>

00000646 <__udivmodhi4_loop>:
 646:	aa 1f       	adc	r26, r26
 648:	bb 1f       	adc	r27, r27
 64a:	a6 17       	cp	r26, r22
 64c:	b7 07       	cpc	r27, r23
 64e:	10 f0       	brcs	.+4      	; 0x654 <__udivmodhi4_ep>
 650:	a6 1b       	sub	r26, r22
 652:	b7 0b       	sbc	r27, r23

00000654 <__udivmodhi4_ep>:
 654:	88 1f       	adc	r24, r24
 656:	99 1f       	adc	r25, r25
 658:	5a 95       	dec	r21
 65a:	a9 f7       	brne	.-22     	; 0x646 <__udivmodhi4_loop>
 65c:	80 95       	com	r24
 65e:	90 95       	com	r25
 660:	bc 01       	movw	r22, r24
 662:	cd 01       	movw	r24, r26
 664:	08 95       	ret

00000666 <memset>:
 666:	dc 01       	movw	r26, r24
 668:	01 c0       	rjmp	.+2      	; 0x66c <memset+0x6>
 66a:	6d 93       	st	X+, r22
 66c:	41 50       	subi	r20, 0x01	; 1
 66e:	50 40       	sbci	r21, 0x00	; 0
 670:	e0 f7       	brcc	.-8      	; 0x66a <memset+0x4>
 672:	08 95       	ret

00000674 <_exit>:
 674:	f8 94       	cli

00000676 <__stop_program>:
 676:	ff cf       	rjmp	.-2      	; 0x676 <__stop_program>
